; Function Attrs: nofree nounwind memory(argmem: readwrite) uwtable
define i64 @wc_strlcat(ptr noundef captures(none) %0, ptr noundef readonly captures(none) %1, i64 noundef %2) local_unnamed_addr #11 {
  %.not = icmp eq i64 %2, 0
  br i1 %.not, label %20, label %4

4:                                                ; preds = %3
  %5 = tail call i64 @strlen(ptr noundef nonnull dereferenceable(1) %0) #17
  %6 = icmp ult i64 %2, %5
  br i1 %6, label %7, label %10

7:                                                ; preds = %4
  %8 = tail call i64 @strlen(ptr noundef nonnull dereferenceable(1) %1) #17
  %9 = add i64 %8, %5
  br label %20

10:                                               ; preds = %4
  %.not.i = icmp eq i64 %2, %5
  br i1 %.not.i, label %wc_strlcpy.exit, label %.preheader.i

.preheader.i:                                     ; preds = %10
  %11 = getelementptr inbounds nuw i8, ptr %0, i64 %5
  %12 = xor i64 %5, -1
  %13 = add i64 %2, %12
  %.not21.i = icmp eq i64 %13, 0
  br i1 %.not21.i, label %.critedge.i, label %.lr.ph.i

.lr.ph.i:                                         ; preds = %.preheader.i, %15
  %.016.i = phi i64 [ %18, %15 ], [ 0, %.preheader.i ]
  %.01015.i = phi ptr [ %16, %15 ], [ %1, %.preheader.i ]
  %.01114.i = phi ptr [ %17, %15 ], [ %11, %.preheader.i ]
  %14 = load i8, ptr %.01015.i, align 1, !tbaa !20
  %.not13.i = icmp eq i8 %14, 0
  br i1 %.not13.i, label %.critedge.i, label %15

15:                                               ; preds = %.lr.ph.i
  %16 = getelementptr inbounds nuw i8, ptr %.01015.i, i64 1
  %17 = getelementptr inbounds nuw i8, ptr %.01114.i, i64 1
  store i8 %14, ptr %.01114.i, align 1, !tbaa !20
  %18 = add nuw i64 %.016.i, 1
  %exitcond.not.i = icmp eq i64 %18, %13
  br i1 %exitcond.not.i, label %.critedge.i, label %.lr.ph.i, !llvm.loop !28

.critedge.i:                                      ; preds = %15, %.lr.ph.i, %.preheader.i
  %.011.lcssa.i = phi ptr [ %11, %.preheader.i ], [ %.01114.i, %.lr.ph.i ], [ %17, %15 ]
  %.0.lcssa.i = phi i64 [ 0, %.preheader.i ], [ %.016.i, %.lr.ph.i ], [ %13, %15 ]
  store i8 0, ptr %.011.lcssa.i, align 1, !tbaa !20
  br label %wc_strlcpy.exit

wc_strlcpy.exit:                                  ; preds = %10, %.critedge.i
  %.09.i = phi i64 [ %.0.lcssa.i, %.critedge.i ], [ 0, %10 ]
  %19 = add i64 %.09.i, %5
  br label %20

20:                                               ; preds = %3, %wc_strlcpy.exit, %7
  %.0 = phi i64 [ %9, %7 ], [ %19, %wc_strlcpy.exit ], [ 0, %3 ]
  ret i64 %.0
}